ARM GAS  /cygdrive/c/Users/embedded/AppData/Local/Temp/ccj5zCCc.s 			page 1


   1              		.code	16
   2              		.file	"lcd.c"
   3              		.text
   4              		.align	2
   5              		.global	lcdColor
   6              		.code 16
   7              		.thumb_func
   8              		.type	lcdColor, %function
   9              	lcdColor:
  10 0000 024B     		ldr	r3, .L3
  11 0002 1870     		strb	r0, [r3]
  12 0004 024B     		ldr	r3, .L3+4
  13              		@ lr needed for prologue
  14 0006 1970     		strb	r1, [r3]
  15              		@ sp needed for prologue
  16 0008 7047     		bx	lr
  17              	.L4:
  18 000a 0000     		.align	2
  19              	.L3:
  20 000c 02000000 		.word	bkgColor
  21 0010 03000000 		.word	textColor
  22              		.size	lcdColor, .-lcdColor
  23              		.align	2
  24              		.global	lcdWrdata
  25              		.code 16
  26              		.thumb_func
  27              		.type	lcdWrdata, %function
  28              	lcdWrdata:
  29 0014 00B5     		push	{lr}
  30 0016 0106     		lsl	r1, r0, #24
  31 0018 090E     		lsr	r1, r1, #24
  32 001a 0120     		mov	r0, #1
  33 001c FFF7FEFF 		bl	sendToLCD
  34              		@ sp needed for prologue
  35 0020 01BC     		pop	{r0}
  36 0022 0047     		bx	r0
  37              		.size	lcdWrdata, .-lcdWrdata
  38              		.align	2
  39              		.global	lcdWrcmd
  40              		.code 16
  41              		.thumb_func
  42              		.type	lcdWrcmd, %function
  43              	lcdWrcmd:
  44 0024 00B5     		push	{lr}
  45 0026 0106     		lsl	r1, r0, #24
  46 0028 090E     		lsr	r1, r1, #24
  47 002a 0020     		mov	r0, #0
  48 002c FFF7FEFF 		bl	sendToLCD
  49              		@ sp needed for prologue
  50 0030 01BC     		pop	{r0}
  51 0032 0047     		bx	r0
  52              		.size	lcdWrcmd, .-lcdWrcmd
  53              		.align	2
  54              		.code 16
  55              		.thumb_func
  56              		.type	lcdWindow1, %function
  57              	lcdWindow1:
ARM GAS  /cygdrive/c/Users/embedded/AppData/Local/Temp/ccj5zCCc.s 			page 2


  58 0034 F0B5     		push	{r4, r5, r6, r7, lr}
  59 0036 0406     		lsl	r4, r0, #24
  60 0038 1506     		lsl	r5, r2, #24
  61 003a 240E     		lsr	r4, r4, #24
  62 003c 2D0E     		lsr	r5, r5, #24
  63 003e 0234     		add	r4, r4, #2
  64 0040 0E06     		lsl	r6, r1, #24
  65 0042 2406     		lsl	r4, r4, #24
  66 0044 0235     		add	r5, r5, #2
  67 0046 1B06     		lsl	r3, r3, #24
  68 0048 2A20     		mov	r0, #42
  69 004a 240E     		lsr	r4, r4, #24
  70 004c 360E     		lsr	r6, r6, #24
  71 004e 2D06     		lsl	r5, r5, #24
  72 0050 1F0E     		lsr	r7, r3, #24
  73 0052 2D0E     		lsr	r5, r5, #24
  74 0054 FFF7FEFF 		bl	lcdWrcmd
  75 0058 0236     		add	r6, r6, #2
  76 005a 201C     		mov	r0, r4
  77 005c FFF7FEFF 		bl	lcdWrdata
  78 0060 3606     		lsl	r6, r6, #24
  79 0062 281C     		mov	r0, r5
  80 0064 FFF7FEFF 		bl	lcdWrdata
  81 0068 360E     		lsr	r6, r6, #24
  82 006a 2B20     		mov	r0, #43
  83 006c FFF7FEFF 		bl	lcdWrcmd
  84 0070 301C     		mov	r0, r6
  85 0072 FFF7FEFF 		bl	lcdWrdata
  86 0076 BB1C     		add	r3, r7, #2
  87 0078 1806     		lsl	r0, r3, #24
  88 007a 000E     		lsr	r0, r0, #24
  89 007c FFF7FEFF 		bl	lcdWrdata
  90              		@ sp needed for prologue
  91 0080 F0BC     		pop	{r4, r5, r6, r7}
  92 0082 01BC     		pop	{r0}
  93 0084 0047     		bx	r0
  94              		.size	lcdWindow1, .-lcdWindow1
  95 0086 0000     		.align	2
  96              		.global	lcdData
  97              		.code 16
  98              		.thumb_func
  99              		.type	lcdData, %function
 100              	lcdData:
 101 0088 F0B5     		push	{r4, r5, r6, r7, lr}
 102 008a 0006     		lsl	r0, r0, #24
 103 008c 050E     		lsr	r5, r0, #24
 104 008e 0120     		mov	r0, #1
 105 0090 FFF7FEFF 		bl	selectLCD
 106 0094 2B06     		lsl	r3, r5, #24
 107 0096 002B     		cmp	r3, #0
 108 0098 45DB     		blt	.L12
 109 009a 2A20     		mov	r0, #42
 110 009c FFF7FEFF 		bl	lcdWrcmd
 111 00a0 264C     		ldr	r4, .L24
 112 00a2 2078     		ldrb	r0, [r4]
 113 00a4 0230     		add	r0, r0, #2
 114 00a6 0006     		lsl	r0, r0, #24
ARM GAS  /cygdrive/c/Users/embedded/AppData/Local/Temp/ccj5zCCc.s 			page 3


 115 00a8 000E     		lsr	r0, r0, #24
 116 00aa FFF7FEFF 		bl	lcdWrdata
 117 00ae 2078     		ldrb	r0, [r4]
 118 00b0 0930     		add	r0, r0, #9
 119 00b2 0006     		lsl	r0, r0, #24
 120 00b4 000E     		lsr	r0, r0, #24
 121 00b6 FFF7FEFF 		bl	lcdWrdata
 122 00ba 2B20     		mov	r0, #43
 123 00bc FFF7FEFF 		bl	lcdWrcmd
 124 00c0 1F4C     		ldr	r4, .L24+4
 125 00c2 2078     		ldrb	r0, [r4]
 126 00c4 0230     		add	r0, r0, #2
 127 00c6 0006     		lsl	r0, r0, #24
 128 00c8 000E     		lsr	r0, r0, #24
 129 00ca FFF7FEFF 		bl	lcdWrdata
 130 00ce 2078     		ldrb	r0, [r4]
 131 00d0 0F30     		add	r0, r0, #15
 132 00d2 0006     		lsl	r0, r0, #24
 133 00d4 000E     		lsr	r0, r0, #24
 134 00d6 FFF7FEFF 		bl	lcdWrdata
 135 00da 2C20     		mov	r0, #44
 136 00dc FFF7FEFF 		bl	lcdWrcmd
 137 00e0 2B1C     		mov	r3, r5
 138 00e2 1E3B     		sub	r3, r3, #30
 139 00e4 1B06     		lsl	r3, r3, #24
 140 00e6 1B0E     		lsr	r3, r3, #24
 141 00e8 DA00     		lsl	r2, r3, #3
 142 00ea D21A     		sub	r2, r2, r3
 143 00ec 154B     		ldr	r3, .L24+8
 144 00ee 5200     		lsl	r2, r2, #1
 145 00f0 D518     		add	r5, r2, r3
 146 00f2 0027     		mov	r7, #0
 147              	.L14:
 148 00f4 2C78     		ldrb	r4, [r5]
 149 00f6 0026     		mov	r6, #0
 150              	.L15:
 151 00f8 2306     		lsl	r3, r4, #24
 152 00fa 002B     		cmp	r3, #0
 153 00fc 01DA     		bge	.L16
 154 00fe 124B     		ldr	r3, .L24+12
 155 0100 00E0     		b	.L23
 156              	.L16:
 157 0102 124B     		ldr	r3, .L24+16
 158              	.L23:
 159 0104 1878     		ldrb	r0, [r3]
 160 0106 FFF7FEFF 		bl	lcdWrdata
 161 010a 731C     		add	r3, r6, #1
 162 010c 1B06     		lsl	r3, r3, #24
 163 010e 1E0E     		lsr	r6, r3, #24
 164 0110 082E     		cmp	r6, #8
 165 0112 02D0     		beq	.L19
 166 0114 6306     		lsl	r3, r4, #25
 167 0116 1C0E     		lsr	r4, r3, #24
 168 0118 EEE7     		b	.L15
 169              	.L19:
 170 011a 7B1C     		add	r3, r7, #1
 171 011c 1B06     		lsl	r3, r3, #24
ARM GAS  /cygdrive/c/Users/embedded/AppData/Local/Temp/ccj5zCCc.s 			page 4


 172 011e 1F0E     		lsr	r7, r3, #24
 173 0120 0135     		add	r5, r5, #1
 174 0122 0E2F     		cmp	r7, #14
 175 0124 E6D1     		bne	.L14
 176              	.L12:
 177 0126 0020     		mov	r0, #0
 178 0128 FFF7FEFF 		bl	selectLCD
 179 012c 034A     		ldr	r2, .L24
 180 012e 1378     		ldrb	r3, [r2]
 181 0130 0833     		add	r3, r3, #8
 182 0132 1370     		strb	r3, [r2]
 183              		@ sp needed for prologue
 184 0134 F0BC     		pop	{r4, r5, r6, r7}
 185 0136 01BC     		pop	{r0}
 186 0138 0047     		bx	r0
 187              	.L25:
 188 013a 0000     		.align	2
 189              	.L24:
 190 013c 00000000 		.word	lcd_x
 191 0140 01000000 		.word	lcd_y
 192 0144 00000000 		.word	charMap
 193 0148 03000000 		.word	textColor
 194 014c 02000000 		.word	bkgColor
 195              		.size	lcdData, .-lcdData
 196              		.align	2
 197              		.global	lcdPutchar
 198              		.code 16
 199              		.thumb_func
 200              		.type	lcdPutchar, %function
 201              	lcdPutchar:
 202 0150 00B5     		push	{lr}
 203 0152 0006     		lsl	r0, r0, #24
 204 0154 000E     		lsr	r0, r0, #24
 205 0156 0A28     		cmp	r0, #10
 206 0158 0CD1     		bne	.L27
 207 015a 124A     		ldr	r2, .L39
 208 015c 0023     		mov	r3, #0
 209 015e 1370     		strb	r3, [r2]
 210 0160 114A     		ldr	r2, .L39+4
 211 0162 1378     		ldrb	r3, [r2]
 212 0164 0E33     		add	r3, r3, #14
 213 0166 1B06     		lsl	r3, r3, #24
 214 0168 1B0E     		lsr	r3, r3, #24
 215 016a 1370     		strb	r3, [r2]
 216 016c 7D2B     		cmp	r3, #125
 217 016e 16D9     		bls	.L37
 218 0170 7E23     		mov	r3, #126
 219 0172 08E0     		b	.L38
 220              	.L27:
 221 0174 0D28     		cmp	r0, #13
 222 0176 12D0     		beq	.L37
 223 0178 0C4A     		ldr	r2, .L39+8
 224 017a 1378     		ldrb	r3, [r2]
 225 017c 012B     		cmp	r3, #1
 226 017e 04D1     		bne	.L32
 227 0180 0B4B     		ldr	r3, .L39+12
 228 0182 1870     		strb	r0, [r3]
ARM GAS  /cygdrive/c/Users/embedded/AppData/Local/Temp/ccj5zCCc.s 			page 5


 229 0184 0023     		mov	r3, #0
 230              	.L38:
 231 0186 1370     		strb	r3, [r2]
 232 0188 09E0     		b	.L37
 233              	.L32:
 234 018a FF28     		cmp	r0, #255
 235 018c 01D1     		bne	.L34
 236 018e 0123     		mov	r3, #1
 237 0190 F9E7     		b	.L38
 238              	.L34:
 239 0192 044B     		ldr	r3, .L39
 240 0194 1B78     		ldrb	r3, [r3]
 241 0196 7C2B     		cmp	r3, #124
 242 0198 01D8     		bhi	.L37
 243 019a FFF7FEFF 		bl	lcdData
 244              	.L37:
 245              		@ sp needed for prologue
 246 019e 01BC     		pop	{r0}
 247 01a0 0047     		bx	r0
 248              	.L40:
 249 01a2 0000     		.align	2
 250              	.L39:
 251 01a4 00000000 		.word	lcd_x
 252 01a8 01000000 		.word	lcd_y
 253 01ac 04000000 		.word	setcolmark
 254 01b0 03000000 		.word	textColor
 255              		.size	lcdPutchar, .-lcdPutchar
 256              		.align	2
 257              		.global	lcdPuts
 258              		.code 16
 259              		.thumb_func
 260              		.type	lcdPuts, %function
 261              	lcdPuts:
 262 01b4 10B5     		push	{r4, lr}
 263 01b6 041C     		mov	r4, r0
 264 01b8 02E0     		b	.L42
 265              	.L43:
 266 01ba 0134     		add	r4, r4, #1
 267 01bc FFF7FEFF 		bl	lcdPutchar
 268              	.L42:
 269 01c0 2078     		ldrb	r0, [r4]
 270 01c2 0028     		cmp	r0, #0
 271 01c4 F9D1     		bne	.L43
 272              		@ sp needed for prologue
 273 01c6 10BC     		pop	{r4}
 274 01c8 01BC     		pop	{r0}
 275 01ca 0047     		bx	r0
 276              		.size	lcdPuts, .-lcdPuts
 277              		.align	2
 278              		.global	lcdWindow
 279              		.code 16
 280              		.thumb_func
 281              		.type	lcdWindow, %function
 282              	lcdWindow:
 283 01cc F0B5     		push	{r4, r5, r6, r7, lr}
 284 01ce 0D06     		lsl	r5, r1, #24
 285 01d0 1606     		lsl	r6, r2, #24
ARM GAS  /cygdrive/c/Users/embedded/AppData/Local/Temp/ccj5zCCc.s 			page 6


 286 01d2 1B06     		lsl	r3, r3, #24
 287 01d4 0406     		lsl	r4, r0, #24
 288 01d6 1F0E     		lsr	r7, r3, #24
 289 01d8 2D0E     		lsr	r5, r5, #24
 290 01da 360E     		lsr	r6, r6, #24
 291 01dc 240E     		lsr	r4, r4, #24
 292 01de 0120     		mov	r0, #1
 293 01e0 FFF7FEFF 		bl	selectLCD
 294 01e4 291C     		mov	r1, r5
 295 01e6 321C     		mov	r2, r6
 296 01e8 3B1C     		mov	r3, r7
 297 01ea 201C     		mov	r0, r4
 298 01ec FFF722FF 		bl	lcdWindow1
 299 01f0 0020     		mov	r0, #0
 300 01f2 FFF7FEFF 		bl	selectLCD
 301              		@ sp needed for prologue
 302 01f6 F0BC     		pop	{r4, r5, r6, r7}
 303 01f8 01BC     		pop	{r0}
 304 01fa 0047     		bx	r0
 305              		.size	lcdWindow, .-lcdWindow
 306              		.align	2
 307              		.global	lcdGotoxy
 308              		.code 16
 309              		.thumb_func
 310              		.type	lcdGotoxy, %function
 311              	lcdGotoxy:
 312 01fc 00B5     		push	{lr}
 313 01fe 074B     		ldr	r3, .L50
 314 0200 0006     		lsl	r0, r0, #24
 315 0202 000E     		lsr	r0, r0, #24
 316 0204 1870     		strb	r0, [r3]
 317 0206 0906     		lsl	r1, r1, #24
 318 0208 054B     		ldr	r3, .L50+4
 319 020a 090E     		lsr	r1, r1, #24
 320 020c 1970     		strb	r1, [r3]
 321 020e 8122     		mov	r2, #129
 322 0210 8123     		mov	r3, #129
 323 0212 FFF7FEFF 		bl	lcdWindow
 324              		@ sp needed for prologue
 325 0216 01BC     		pop	{r0}
 326 0218 0047     		bx	r0
 327              	.L51:
 328 021a 0000     		.align	2
 329              	.L50:
 330 021c 00000000 		.word	lcd_x
 331 0220 01000000 		.word	lcd_y
 332              		.size	lcdGotoxy, .-lcdGotoxy
 333              		.align	2
 334              		.global	lcdIcon
 335              		.code 16
 336              		.thumb_func
 337              		.type	lcdIcon, %function
 338              	lcdIcon:
 339 0224 F0B5     		push	{r4, r5, r6, r7, lr}
 340 0226 84B0     		sub	sp, sp, #16
 341 0228 0D1C     		mov	r5, r1
 342 022a 1E1C     		mov	r6, r3
ARM GAS  /cygdrive/c/Users/embedded/AppData/Local/Temp/ccj5zCCc.s 			page 7


 343 022c 0999     		ldr	r1, [sp, #36]
 344 022e 0A9B     		ldr	r3, [sp, #40]
 345 0230 1206     		lsl	r2, r2, #24
 346 0232 120E     		lsr	r2, r2, #24
 347 0234 0292     		str	r2, [sp, #8]
 348 0236 1B06     		lsl	r3, r3, #24
 349 0238 0A06     		lsl	r2, r1, #24
 350 023a 120E     		lsr	r2, r2, #24
 351 023c 1B0E     		lsr	r3, r3, #24
 352 023e 0406     		lsl	r4, r0, #24
 353 0240 0120     		mov	r0, #1
 354 0242 0192     		str	r2, [sp, #4]
 355 0244 0093     		str	r3, [sp]
 356 0246 0B9F     		ldr	r7, [sp, #44]
 357 0248 2D06     		lsl	r5, r5, #24
 358 024a FFF7FEFF 		bl	selectLCD
 359 024e 3606     		lsl	r6, r6, #24
 360 0250 029B     		ldr	r3, [sp, #8]
 361 0252 240E     		lsr	r4, r4, #24
 362 0254 2D0E     		lsr	r5, r5, #24
 363 0256 360E     		lsr	r6, r6, #24
 364 0258 E218     		add	r2, r4, r3
 365 025a AB19     		add	r3, r5, r6
 366 025c 013A     		sub	r2, r2, #1
 367 025e 013B     		sub	r3, r3, #1
 368 0260 1206     		lsl	r2, r2, #24
 369 0262 1B06     		lsl	r3, r3, #24
 370 0264 120E     		lsr	r2, r2, #24
 371 0266 1B0E     		lsr	r3, r3, #24
 372 0268 201C     		mov	r0, r4
 373 026a 291C     		mov	r1, r5
 374 026c FFF7E2FE 		bl	lcdWindow1
 375 0270 2C20     		mov	r0, #44
 376 0272 FFF7FEFF 		bl	lcdWrcmd
 377 0276 029A     		ldr	r2, [sp, #8]
 378 0278 019B     		ldr	r3, [sp, #4]
 379 027a 5643     		mul	r6, r2
 380 027c 002B     		cmp	r3, #0
 381 027e 20D1     		bne	.L71
 382 0280 0024     		mov	r4, #0
 383 0282 03E0     		b	.L55
 384              	.L56:
 385 0284 E05D     		ldrb	r0, [r4, r7]
 386 0286 FFF7FEFF 		bl	lcdWrdata
 387 028a 0134     		add	r4, r4, #1
 388              	.L55:
 389 028c B442     		cmp	r4, r6
 390 028e F9D1     		bne	.L56
 391 0290 19E0     		b	.L57
 392              	.L58:
 393 0292 3878     		ldrb	r0, [r7]
 394 0294 009A     		ldr	r2, [sp]
 395 0296 7B1C     		add	r3, r7, #1
 396 0298 9042     		cmp	r0, r2
 397 029a 0ED1     		bne	.L59
 398 029c 7F78     		ldrb	r7, [r7, #1]
 399 029e 5D1C     		add	r5, r3, #1
ARM GAS  /cygdrive/c/Users/embedded/AppData/Local/Temp/ccj5zCCc.s 			page 8


 400 02a0 0024     		mov	r4, #0
 401 02a2 0397     		str	r7, [sp, #12]
 402 02a4 03E0     		b	.L61
 403              	.L62:
 404 02a6 2878     		ldrb	r0, [r5]
 405 02a8 FFF7FEFF 		bl	lcdWrdata
 406 02ac 0134     		add	r4, r4, #1
 407              	.L61:
 408 02ae 039B     		ldr	r3, [sp, #12]
 409 02b0 9C42     		cmp	r4, r3
 410 02b2 F8D1     		bne	.L62
 411 02b4 6F1C     		add	r7, r5, #1
 412 02b6 F61A     		sub	r6, r6, r3
 413 02b8 03E0     		b	.L71
 414              	.L59:
 415 02ba 1F1C     		mov	r7, r3
 416 02bc FFF7FEFF 		bl	lcdWrdata
 417 02c0 013E     		sub	r6, r6, #1
 418              	.L71:
 419 02c2 002E     		cmp	r6, #0
 420 02c4 E5DC     		bgt	.L58
 421              	.L57:
 422 02c6 0020     		mov	r0, #0
 423 02c8 FFF7FEFF 		bl	selectLCD
 424 02cc 04B0     		add	sp, sp, #16
 425              		@ sp needed for prologue
 426 02ce F0BC     		pop	{r4, r5, r6, r7}
 427 02d0 01BC     		pop	{r0}
 428 02d2 0047     		bx	r0
 429              		.size	lcdIcon, .-lcdIcon
 430              		.align	2
 431              		.global	lcdRectBrd
 432              		.code 16
 433              		.thumb_func
 434              		.type	lcdRectBrd, %function
 435              	lcdRectBrd:
 436 02d4 F0B5     		push	{r4, r5, r6, r7, lr}
 437 02d6 83B0     		sub	sp, sp, #12
 438 02d8 051C     		mov	r5, r0
 439 02da 0998     		ldr	r0, [sp, #36]
 440 02dc 0E1C     		mov	r6, r1
 441 02de 0899     		ldr	r1, [sp, #32]
 442 02e0 0006     		lsl	r0, r0, #24
 443 02e2 000E     		lsr	r0, r0, #24
 444 02e4 1B06     		lsl	r3, r3, #24
 445 02e6 0906     		lsl	r1, r1, #24
 446 02e8 1206     		lsl	r2, r2, #24
 447 02ea 1B0E     		lsr	r3, r3, #24
 448 02ec 090E     		lsr	r1, r1, #24
 449 02ee 0090     		str	r0, [sp]
 450 02f0 0120     		mov	r0, #1
 451 02f2 0A9C     		ldr	r4, [sp, #40]
 452 02f4 170E     		lsr	r7, r2, #24
 453 02f6 0293     		str	r3, [sp, #8]
 454 02f8 0191     		str	r1, [sp, #4]
 455 02fa 2D06     		lsl	r5, r5, #24
 456 02fc FFF7FEFF 		bl	selectLCD
ARM GAS  /cygdrive/c/Users/embedded/AppData/Local/Temp/ccj5zCCc.s 			page 9


 457 0300 3606     		lsl	r6, r6, #24
 458 0302 0299     		ldr	r1, [sp, #8]
 459 0304 2D0E     		lsr	r5, r5, #24
 460 0306 360E     		lsr	r6, r6, #24
 461 0308 EA19     		add	r2, r5, r7
 462 030a 7318     		add	r3, r6, r1
 463 030c 013A     		sub	r2, r2, #1
 464 030e 013B     		sub	r3, r3, #1
 465 0310 1206     		lsl	r2, r2, #24
 466 0312 1B06     		lsl	r3, r3, #24
 467 0314 281C     		mov	r0, r5
 468 0316 120E     		lsr	r2, r2, #24
 469 0318 1B0E     		lsr	r3, r3, #24
 470 031a 311C     		mov	r1, r6
 471 031c FFF78AFE 		bl	lcdWindow1
 472 0320 2C20     		mov	r0, #44
 473 0322 FFF7FEFF 		bl	lcdWrcmd
 474 0326 2406     		lsl	r4, r4, #24
 475 0328 240E     		lsr	r4, r4, #24
 476 032a 0025     		mov	r5, #0
 477 032c 03E0     		b	.L73
 478              	.L74:
 479 032e 0098     		ldr	r0, [sp]
 480 0330 FFF7FEFF 		bl	lcdWrdata
 481 0334 0135     		add	r5, r5, #1
 482              	.L73:
 483 0336 BD42     		cmp	r5, r7
 484 0338 F9D1     		bne	.L74
 485 033a 0126     		mov	r6, #1
 486 033c 0FE0     		b	.L76
 487              	.L77:
 488 033e 0098     		ldr	r0, [sp]
 489 0340 FFF7FEFF 		bl	lcdWrdata
 490 0344 0025     		mov	r5, #0
 491 0346 03E0     		b	.L78
 492              	.L79:
 493 0348 0198     		ldr	r0, [sp, #4]
 494 034a FFF7FEFF 		bl	lcdWrdata
 495 034e 0135     		add	r5, r5, #1
 496              	.L78:
 497 0350 BB1E     		sub	r3, r7, #2
 498 0352 9D42     		cmp	r5, r3
 499 0354 F8D1     		bne	.L79
 500 0356 201C     		mov	r0, r4
 501 0358 FFF7FEFF 		bl	lcdWrdata
 502 035c 0136     		add	r6, r6, #1
 503              	.L76:
 504 035e 029B     		ldr	r3, [sp, #8]
 505 0360 023B     		sub	r3, r3, #2
 506 0362 9E42     		cmp	r6, r3
 507 0364 EBD3     		bcc	.L77
 508 0366 0025     		mov	r5, #0
 509 0368 03E0     		b	.L82
 510              	.L83:
 511 036a 201C     		mov	r0, r4
 512 036c FFF7FEFF 		bl	lcdWrdata
 513 0370 0135     		add	r5, r5, #1
ARM GAS  /cygdrive/c/Users/embedded/AppData/Local/Temp/ccj5zCCc.s 			page 10


 514              	.L82:
 515 0372 BD42     		cmp	r5, r7
 516 0374 F9D1     		bne	.L83
 517 0376 0020     		mov	r0, #0
 518 0378 FFF7FEFF 		bl	selectLCD
 519 037c 03B0     		add	sp, sp, #12
 520              		@ sp needed for prologue
 521 037e F0BC     		pop	{r4, r5, r6, r7}
 522 0380 01BC     		pop	{r0}
 523 0382 0047     		bx	r0
 524              		.size	lcdRectBrd, .-lcdRectBrd
 525              		.align	2
 526              		.global	lcdRect
 527              		.code 16
 528              		.thumb_func
 529              		.type	lcdRect, %function
 530              	lcdRect:
 531 0384 F0B5     		push	{r4, r5, r6, r7, lr}
 532 0386 81B0     		sub	sp, sp, #4
 533 0388 1E1C     		mov	r6, r3
 534 038a 069B     		ldr	r3, [sp, #24]
 535 038c 0D06     		lsl	r5, r1, #24
 536 038e 1206     		lsl	r2, r2, #24
 537 0390 0406     		lsl	r4, r0, #24
 538 0392 3606     		lsl	r6, r6, #24
 539 0394 1B06     		lsl	r3, r3, #24
 540 0396 240E     		lsr	r4, r4, #24
 541 0398 170E     		lsr	r7, r2, #24
 542 039a 1B0E     		lsr	r3, r3, #24
 543 039c 2D0E     		lsr	r5, r5, #24
 544 039e 360E     		lsr	r6, r6, #24
 545 03a0 0120     		mov	r0, #1
 546 03a2 0093     		str	r3, [sp]
 547 03a4 FFF7FEFF 		bl	selectLCD
 548 03a8 E219     		add	r2, r4, r7
 549 03aa AB19     		add	r3, r5, r6
 550 03ac 013A     		sub	r2, r2, #1
 551 03ae 013B     		sub	r3, r3, #1
 552 03b0 1206     		lsl	r2, r2, #24
 553 03b2 1B06     		lsl	r3, r3, #24
 554 03b4 201C     		mov	r0, r4
 555 03b6 120E     		lsr	r2, r2, #24
 556 03b8 1B0E     		lsr	r3, r3, #24
 557 03ba 291C     		mov	r1, r5
 558 03bc FFF73AFE 		bl	lcdWindow1
 559 03c0 2C20     		mov	r0, #44
 560 03c2 FFF7FEFF 		bl	lcdWrcmd
 561 03c6 7E43     		mul	r6, r7
 562 03c8 0024     		mov	r4, #0
 563 03ca 03E0     		b	.L87
 564              	.L88:
 565 03cc 0098     		ldr	r0, [sp]
 566 03ce FFF7FEFF 		bl	lcdWrdata
 567 03d2 0134     		add	r4, r4, #1
 568              	.L87:
 569 03d4 B442     		cmp	r4, r6
 570 03d6 F9D1     		bne	.L88
ARM GAS  /cygdrive/c/Users/embedded/AppData/Local/Temp/ccj5zCCc.s 			page 11


 571 03d8 0020     		mov	r0, #0
 572 03da FFF7FEFF 		bl	selectLCD
 573 03de 01B0     		add	sp, sp, #4
 574              		@ sp needed for prologue
 575 03e0 F0BC     		pop	{r4, r5, r6, r7}
 576 03e2 01BC     		pop	{r0}
 577 03e4 0047     		bx	r0
 578              		.size	lcdRect, .-lcdRect
 579 03e6 0000     		.align	2
 580              		.global	lcdContrast
 581              		.code 16
 582              		.thumb_func
 583              		.type	lcdContrast, %function
 584              	lcdContrast:
 585 03e8 10B5     		push	{r4, lr}
 586 03ea 0406     		lsl	r4, r0, #24
 587 03ec 0120     		mov	r0, #1
 588 03ee FFF7FEFF 		bl	selectLCD
 589 03f2 240E     		lsr	r4, r4, #24
 590 03f4 2520     		mov	r0, #37
 591 03f6 FFF7FEFF 		bl	lcdWrcmd
 592 03fa 201C     		mov	r0, r4
 593 03fc FFF7FEFF 		bl	lcdWrdata
 594 0400 0020     		mov	r0, #0
 595 0402 FFF7FEFF 		bl	selectLCD
 596              		@ sp needed for prologue
 597 0406 10BC     		pop	{r4}
 598 0408 01BC     		pop	{r0}
 599 040a 0047     		bx	r0
 600              		.size	lcdContrast, .-lcdContrast
 601              		.align	2
 602              		.global	lcdClrscr
 603              		.code 16
 604              		.thumb_func
 605              		.type	lcdClrscr, %function
 606              	lcdClrscr:
 607 040c 10B5     		push	{r4, lr}
 608 040e 104B     		ldr	r3, .L99
 609 0410 0022     		mov	r2, #0
 610 0412 1A70     		strb	r2, [r3]
 611 0414 0F4B     		ldr	r3, .L99+4
 612 0416 0120     		mov	r0, #1
 613 0418 1A70     		strb	r2, [r3]
 614 041a FFF7FEFF 		bl	selectLCD
 615 041e FF20     		mov	r0, #255
 616 0420 FF21     		mov	r1, #255
 617 0422 8022     		mov	r2, #128
 618 0424 8023     		mov	r3, #128
 619 0426 FFF705FE 		bl	lcdWindow1
 620 042a 2C20     		mov	r0, #44
 621 042c FFF7FEFF 		bl	lcdWrcmd
 622 0430 0024     		mov	r4, #0
 623              	.L94:
 624 0432 094B     		ldr	r3, .L99+8
 625 0434 1878     		ldrb	r0, [r3]
 626 0436 FFF7FEFF 		bl	lcdWrdata
 627 043a 084B     		ldr	r3, .L99+12
ARM GAS  /cygdrive/c/Users/embedded/AppData/Local/Temp/ccj5zCCc.s 			page 12


 628 043c 0134     		add	r4, r4, #1
 629 043e 9C42     		cmp	r4, r3
 630 0440 F7D1     		bne	.L94
 631 0442 0020     		mov	r0, #0
 632 0444 FFF7FEFF 		bl	selectLCD
 633              		@ sp needed for prologue
 634 0448 10BC     		pop	{r4}
 635 044a 01BC     		pop	{r0}
 636 044c 0047     		bx	r0
 637              	.L100:
 638 044e 0000     		.align	2
 639              	.L99:
 640 0450 00000000 		.word	lcd_x
 641 0454 01000000 		.word	lcd_y
 642 0458 02000000 		.word	bkgColor
 643 045c 04420000 		.word	16900
 644              		.size	lcdClrscr, .-lcdClrscr
 645              		.align	2
 646              		.global	lcdOff
 647              		.code 16
 648              		.thumb_func
 649              		.type	lcdOff, %function
 650              	lcdOff:
 651 0460 00B5     		push	{lr}
 652 0462 FFF7FEFF 		bl	lcdClrscr
 653 0466 0120     		mov	r0, #1
 654 0468 FFF7FEFF 		bl	selectLCD
 655 046c 1020     		mov	r0, #16
 656 046e FFF7FEFF 		bl	lcdWrcmd
 657 0472 0020     		mov	r0, #0
 658 0474 FFF7FEFF 		bl	selectLCD
 659              		@ sp needed for prologue
 660 0478 01BC     		pop	{r0}
 661 047a 0047     		bx	r0
 662              		.size	lcdOff, .-lcdOff
 663              		.align	2
 664              		.global	lcdInit
 665              		.code 16
 666              		.thumb_func
 667              		.type	lcdInit, %function
 668              	lcdInit:
 669 047c 00B5     		push	{lr}
 670 047e 3A4B     		ldr	r3, .L105
 671 0480 0022     		mov	r2, #0
 672 0482 1A70     		strb	r2, [r3]
 673 0484 394B     		ldr	r3, .L105+4
 674 0486 1A70     		strb	r2, [r3]
 675 0488 FFF7FEFF 		bl	initSpiForLcd
 676 048c 0120     		mov	r0, #1
 677 048e FFF7FEFF 		bl	selectLCD
 678 0492 0120     		mov	r0, #1
 679 0494 FFF7FEFF 		bl	lcdWrcmd
 680 0498 0120     		mov	r0, #1
 681 049a FFF7FEFF 		bl	osSleep
 682 049e 1120     		mov	r0, #17
 683 04a0 FFF7FEFF 		bl	lcdWrcmd
 684 04a4 2920     		mov	r0, #41
ARM GAS  /cygdrive/c/Users/embedded/AppData/Local/Temp/ccj5zCCc.s 			page 13


 685 04a6 FFF7FEFF 		bl	lcdWrcmd
 686 04aa 0320     		mov	r0, #3
 687 04ac FFF7FEFF 		bl	lcdWrcmd
 688 04b0 0120     		mov	r0, #1
 689 04b2 FFF7FEFF 		bl	osSleep
 690 04b6 3620     		mov	r0, #54
 691 04b8 FFF7FEFF 		bl	lcdWrcmd
 692 04bc 4820     		mov	r0, #72
 693 04be FFF7FEFF 		bl	lcdWrdata
 694 04c2 3A20     		mov	r0, #58
 695 04c4 FFF7FEFF 		bl	lcdWrcmd
 696 04c8 0220     		mov	r0, #2
 697 04ca FFF7FEFF 		bl	lcdWrdata
 698 04ce 2120     		mov	r0, #33
 699 04d0 FFF7FEFF 		bl	lcdWrcmd
 700 04d4 2D20     		mov	r0, #45
 701 04d6 FFF7FEFF 		bl	lcdWrcmd
 702 04da 0020     		mov	r0, #0
 703 04dc FFF7FEFF 		bl	lcdWrdata
 704 04e0 0220     		mov	r0, #2
 705 04e2 FFF7FEFF 		bl	lcdWrdata
 706 04e6 0420     		mov	r0, #4
 707 04e8 FFF7FEFF 		bl	lcdWrdata
 708 04ec 0620     		mov	r0, #6
 709 04ee FFF7FEFF 		bl	lcdWrdata
 710 04f2 0920     		mov	r0, #9
 711 04f4 FFF7FEFF 		bl	lcdWrdata
 712 04f8 0B20     		mov	r0, #11
 713 04fa FFF7FEFF 		bl	lcdWrdata
 714 04fe 0D20     		mov	r0, #13
 715 0500 FFF7FEFF 		bl	lcdWrdata
 716 0504 0F20     		mov	r0, #15
 717 0506 FFF7FEFF 		bl	lcdWrdata
 718 050a 0020     		mov	r0, #0
 719 050c FFF7FEFF 		bl	lcdWrdata
 720 0510 0220     		mov	r0, #2
 721 0512 FFF7FEFF 		bl	lcdWrdata
 722 0516 0420     		mov	r0, #4
 723 0518 FFF7FEFF 		bl	lcdWrdata
 724 051c 0620     		mov	r0, #6
 725 051e FFF7FEFF 		bl	lcdWrdata
 726 0522 0920     		mov	r0, #9
 727 0524 FFF7FEFF 		bl	lcdWrdata
 728 0528 0B20     		mov	r0, #11
 729 052a FFF7FEFF 		bl	lcdWrdata
 730 052e 0D20     		mov	r0, #13
 731 0530 FFF7FEFF 		bl	lcdWrdata
 732 0534 0F20     		mov	r0, #15
 733 0536 FFF7FEFF 		bl	lcdWrdata
 734 053a 0020     		mov	r0, #0
 735 053c FFF7FEFF 		bl	lcdWrdata
 736 0540 0620     		mov	r0, #6
 737 0542 FFF7FEFF 		bl	lcdWrdata
 738 0546 0A20     		mov	r0, #10
 739 0548 FFF7FEFF 		bl	lcdWrdata
 740 054c 0F20     		mov	r0, #15
 741 054e FFF7FEFF 		bl	lcdWrdata
ARM GAS  /cygdrive/c/Users/embedded/AppData/Local/Temp/ccj5zCCc.s 			page 14


 742 0552 0020     		mov	r0, #0
 743 0554 FFF7FEFF 		bl	selectLCD
 744 0558 3820     		mov	r0, #56
 745 055a FFF7FEFF 		bl	lcdContrast
 746 055e FFF7FEFF 		bl	lcdClrscr
 747              		@ sp needed for prologue
 748 0562 01BC     		pop	{r0}
 749 0564 0047     		bx	r0
 750              	.L106:
 751 0566 0000     		.align	2
 752              	.L105:
 753 0568 02000000 		.word	bkgColor
 754 056c 03000000 		.word	textColor
 755              		.size	lcdInit, .-lcdInit
 756              		.global	charMap
 757              		.section	.rodata
 758              		.type	charMap, %object
 759              		.size	charMap, 1372
 760              	charMap:
 761 0000 00       		.byte	0
 762 0001 00       		.byte	0
 763 0002 00       		.byte	0
 764 0003 80       		.byte	-128
 765 0004 C0       		.byte	-64
 766 0005 E0       		.byte	-32
 767 0006 F8       		.byte	-8
 768 0007 FE       		.byte	-2
 769 0008 F8       		.byte	-8
 770 0009 E0       		.byte	-32
 771 000a C0       		.byte	-64
 772 000b 80       		.byte	-128
 773 000c 00       		.byte	0
 774 000d 00       		.byte	0
 775 000e 00       		.byte	0
 776 000f 00       		.byte	0
 777 0010 00       		.byte	0
 778 0011 02       		.byte	2
 779 0012 06       		.byte	6
 780 0013 0E       		.byte	14
 781 0014 3E       		.byte	62
 782 0015 FE       		.byte	-2
 783 0016 3E       		.byte	62
 784 0017 0E       		.byte	14
 785 0018 06       		.byte	6
 786 0019 02       		.byte	2
 787 001a 00       		.byte	0
 788 001b 00       		.byte	0
 789 001c 00       		.byte	0
 790 001d 00       		.byte	0
 791 001e 00       		.byte	0
 792 001f 00       		.byte	0
 793 0020 00       		.byte	0
 794 0021 00       		.byte	0
 795 0022 00       		.byte	0
 796 0023 00       		.byte	0
 797 0024 00       		.byte	0
 798 0025 00       		.byte	0
ARM GAS  /cygdrive/c/Users/embedded/AppData/Local/Temp/ccj5zCCc.s 			page 15


 799 0026 00       		.byte	0
 800 0027 00       		.byte	0
 801 0028 00       		.byte	0
 802 0029 00       		.byte	0
 803 002a 00       		.byte	0
 804 002b 00       		.byte	0
 805 002c 00       		.byte	0
 806 002d 18       		.byte	24
 807 002e 3C       		.byte	60
 808 002f 3C       		.byte	60
 809 0030 3C       		.byte	60
 810 0031 18       		.byte	24
 811 0032 18       		.byte	24
 812 0033 00       		.byte	0
 813 0034 18       		.byte	24
 814 0035 18       		.byte	24
 815 0036 00       		.byte	0
 816 0037 00       		.byte	0
 817 0038 00       		.byte	0
 818 0039 66       		.byte	102
 819 003a 66       		.byte	102
 820 003b 66       		.byte	102
 821 003c 24       		.byte	36
 822 003d 00       		.byte	0
 823 003e 00       		.byte	0
 824 003f 00       		.byte	0
 825 0040 00       		.byte	0
 826 0041 00       		.byte	0
 827 0042 00       		.byte	0
 828 0043 00       		.byte	0
 829 0044 00       		.byte	0
 830 0045 00       		.byte	0
 831 0046 00       		.byte	0
 832 0047 00       		.byte	0
 833 0048 00       		.byte	0
 834 0049 6C       		.byte	108
 835 004a 6C       		.byte	108
 836 004b FE       		.byte	-2
 837 004c 6C       		.byte	108
 838 004d 6C       		.byte	108
 839 004e 6C       		.byte	108
 840 004f FE       		.byte	-2
 841 0050 6C       		.byte	108
 842 0051 6C       		.byte	108
 843 0052 00       		.byte	0
 844 0053 00       		.byte	0
 845 0054 00       		.byte	0
 846 0055 18       		.byte	24
 847 0056 18       		.byte	24
 848 0057 7C       		.byte	124
 849 0058 C6       		.byte	-58
 850 0059 C2       		.byte	-62
 851 005a C0       		.byte	-64
 852 005b 7C       		.byte	124
 853 005c 06       		.byte	6
 854 005d 86       		.byte	-122
 855 005e C6       		.byte	-58
ARM GAS  /cygdrive/c/Users/embedded/AppData/Local/Temp/ccj5zCCc.s 			page 16


 856 005f 7C       		.byte	124
 857 0060 18       		.byte	24
 858 0061 18       		.byte	24
 859 0062 00       		.byte	0
 860 0063 00       		.byte	0
 861 0064 00       		.byte	0
 862 0065 00       		.byte	0
 863 0066 00       		.byte	0
 864 0067 C2       		.byte	-62
 865 0068 C6       		.byte	-58
 866 0069 0C       		.byte	12
 867 006a 18       		.byte	24
 868 006b 30       		.byte	48
 869 006c 66       		.byte	102
 870 006d C6       		.byte	-58
 871 006e 00       		.byte	0
 872 006f 00       		.byte	0
 873 0070 00       		.byte	0
 874 0071 00       		.byte	0
 875 0072 00       		.byte	0
 876 0073 38       		.byte	56
 877 0074 6C       		.byte	108
 878 0075 6C       		.byte	108
 879 0076 38       		.byte	56
 880 0077 76       		.byte	118
 881 0078 DC       		.byte	-36
 882 0079 CC       		.byte	-52
 883 007a CC       		.byte	-52
 884 007b 76       		.byte	118
 885 007c 00       		.byte	0
 886 007d 00       		.byte	0
 887 007e 00       		.byte	0
 888 007f 18       		.byte	24
 889 0080 18       		.byte	24
 890 0081 18       		.byte	24
 891 0082 30       		.byte	48
 892 0083 00       		.byte	0
 893 0084 00       		.byte	0
 894 0085 00       		.byte	0
 895 0086 00       		.byte	0
 896 0087 00       		.byte	0
 897 0088 00       		.byte	0
 898 0089 00       		.byte	0
 899 008a 00       		.byte	0
 900 008b 00       		.byte	0
 901 008c 00       		.byte	0
 902 008d 00       		.byte	0
 903 008e 00       		.byte	0
 904 008f 0C       		.byte	12
 905 0090 18       		.byte	24
 906 0091 30       		.byte	48
 907 0092 30       		.byte	48
 908 0093 30       		.byte	48
 909 0094 30       		.byte	48
 910 0095 30       		.byte	48
 911 0096 18       		.byte	24
 912 0097 0C       		.byte	12
ARM GAS  /cygdrive/c/Users/embedded/AppData/Local/Temp/ccj5zCCc.s 			page 17


 913 0098 00       		.byte	0
 914 0099 00       		.byte	0
 915 009a 00       		.byte	0
 916 009b 00       		.byte	0
 917 009c 00       		.byte	0
 918 009d 30       		.byte	48
 919 009e 18       		.byte	24
 920 009f 0C       		.byte	12
 921 00a0 0C       		.byte	12
 922 00a1 0C       		.byte	12
 923 00a2 0C       		.byte	12
 924 00a3 0C       		.byte	12
 925 00a4 18       		.byte	24
 926 00a5 30       		.byte	48
 927 00a6 00       		.byte	0
 928 00a7 00       		.byte	0
 929 00a8 00       		.byte	0
 930 00a9 00       		.byte	0
 931 00aa 00       		.byte	0
 932 00ab 00       		.byte	0
 933 00ac 00       		.byte	0
 934 00ad 66       		.byte	102
 935 00ae 3C       		.byte	60
 936 00af FF       		.byte	-1
 937 00b0 3C       		.byte	60
 938 00b1 66       		.byte	102
 939 00b2 00       		.byte	0
 940 00b3 00       		.byte	0
 941 00b4 00       		.byte	0
 942 00b5 00       		.byte	0
 943 00b6 00       		.byte	0
 944 00b7 00       		.byte	0
 945 00b8 00       		.byte	0
 946 00b9 00       		.byte	0
 947 00ba 00       		.byte	0
 948 00bb 18       		.byte	24
 949 00bc 18       		.byte	24
 950 00bd 7E       		.byte	126
 951 00be 18       		.byte	24
 952 00bf 18       		.byte	24
 953 00c0 00       		.byte	0
 954 00c1 00       		.byte	0
 955 00c2 00       		.byte	0
 956 00c3 00       		.byte	0
 957 00c4 00       		.byte	0
 958 00c5 00       		.byte	0
 959 00c6 00       		.byte	0
 960 00c7 00       		.byte	0
 961 00c8 00       		.byte	0
 962 00c9 00       		.byte	0
 963 00ca 00       		.byte	0
 964 00cb 00       		.byte	0
 965 00cc 00       		.byte	0
 966 00cd 18       		.byte	24
 967 00ce 18       		.byte	24
 968 00cf 18       		.byte	24
 969 00d0 30       		.byte	48
ARM GAS  /cygdrive/c/Users/embedded/AppData/Local/Temp/ccj5zCCc.s 			page 18


 970 00d1 00       		.byte	0
 971 00d2 00       		.byte	0
 972 00d3 00       		.byte	0
 973 00d4 00       		.byte	0
 974 00d5 00       		.byte	0
 975 00d6 00       		.byte	0
 976 00d7 00       		.byte	0
 977 00d8 00       		.byte	0
 978 00d9 FE       		.byte	-2
 979 00da 00       		.byte	0
 980 00db 00       		.byte	0
 981 00dc 00       		.byte	0
 982 00dd 00       		.byte	0
 983 00de 00       		.byte	0
 984 00df 00       		.byte	0
 985 00e0 00       		.byte	0
 986 00e1 00       		.byte	0
 987 00e2 00       		.byte	0
 988 00e3 00       		.byte	0
 989 00e4 00       		.byte	0
 990 00e5 00       		.byte	0
 991 00e6 00       		.byte	0
 992 00e7 00       		.byte	0
 993 00e8 00       		.byte	0
 994 00e9 00       		.byte	0
 995 00ea 18       		.byte	24
 996 00eb 18       		.byte	24
 997 00ec 00       		.byte	0
 998 00ed 00       		.byte	0
 999 00ee 00       		.byte	0
 1000 00ef 00       		.byte	0
 1001 00f0 00       		.byte	0
 1002 00f1 02       		.byte	2
 1003 00f2 06       		.byte	6
 1004 00f3 0C       		.byte	12
 1005 00f4 18       		.byte	24
 1006 00f5 30       		.byte	48
 1007 00f6 60       		.byte	96
 1008 00f7 C0       		.byte	-64
 1009 00f8 80       		.byte	-128
 1010 00f9 00       		.byte	0
 1011 00fa 00       		.byte	0
 1012 00fb 00       		.byte	0
 1013 00fc 00       		.byte	0
 1014 00fd 00       		.byte	0
 1015 00fe 00       		.byte	0
 1016 00ff 38       		.byte	56
 1017 0100 6C       		.byte	108
 1018 0101 C6       		.byte	-58
 1019 0102 C6       		.byte	-58
 1020 0103 D6       		.byte	-42
 1021 0104 C6       		.byte	-58
 1022 0105 C6       		.byte	-58
 1023 0106 6C       		.byte	108
 1024 0107 38       		.byte	56
 1025 0108 00       		.byte	0
 1026 0109 00       		.byte	0
ARM GAS  /cygdrive/c/Users/embedded/AppData/Local/Temp/ccj5zCCc.s 			page 19


 1027 010a 00       		.byte	0
 1028 010b 00       		.byte	0
 1029 010c 00       		.byte	0
 1030 010d 18       		.byte	24
 1031 010e 38       		.byte	56
 1032 010f 78       		.byte	120
 1033 0110 18       		.byte	24
 1034 0111 18       		.byte	24
 1035 0112 18       		.byte	24
 1036 0113 18       		.byte	24
 1037 0114 18       		.byte	24
 1038 0115 7E       		.byte	126
 1039 0116 00       		.byte	0
 1040 0117 00       		.byte	0
 1041 0118 00       		.byte	0
 1042 0119 00       		.byte	0
 1043 011a 00       		.byte	0
 1044 011b 7C       		.byte	124
 1045 011c C6       		.byte	-58
 1046 011d 06       		.byte	6
 1047 011e 0C       		.byte	12
 1048 011f 18       		.byte	24
 1049 0120 30       		.byte	48
 1050 0121 60       		.byte	96
 1051 0122 C6       		.byte	-58
 1052 0123 FE       		.byte	-2
 1053 0124 00       		.byte	0
 1054 0125 00       		.byte	0
 1055 0126 00       		.byte	0
 1056 0127 00       		.byte	0
 1057 0128 00       		.byte	0
 1058 0129 7C       		.byte	124
 1059 012a C6       		.byte	-58
 1060 012b 06       		.byte	6
 1061 012c 06       		.byte	6
 1062 012d 3C       		.byte	60
 1063 012e 06       		.byte	6
 1064 012f 06       		.byte	6
 1065 0130 C6       		.byte	-58
 1066 0131 7C       		.byte	124
 1067 0132 00       		.byte	0
 1068 0133 00       		.byte	0
 1069 0134 00       		.byte	0
 1070 0135 00       		.byte	0
 1071 0136 00       		.byte	0
 1072 0137 0C       		.byte	12
 1073 0138 1C       		.byte	28
 1074 0139 3C       		.byte	60
 1075 013a 6C       		.byte	108
 1076 013b CC       		.byte	-52
 1077 013c FE       		.byte	-2
 1078 013d 0C       		.byte	12
 1079 013e 0C       		.byte	12
 1080 013f 1E       		.byte	30
 1081 0140 00       		.byte	0
 1082 0141 00       		.byte	0
 1083 0142 00       		.byte	0
ARM GAS  /cygdrive/c/Users/embedded/AppData/Local/Temp/ccj5zCCc.s 			page 20


 1084 0143 00       		.byte	0
 1085 0144 00       		.byte	0
 1086 0145 FE       		.byte	-2
 1087 0146 C0       		.byte	-64
 1088 0147 C0       		.byte	-64
 1089 0148 C0       		.byte	-64
 1090 0149 FC       		.byte	-4
 1091 014a 06       		.byte	6
 1092 014b 06       		.byte	6
 1093 014c C6       		.byte	-58
 1094 014d 7C       		.byte	124
 1095 014e 00       		.byte	0
 1096 014f 00       		.byte	0
 1097 0150 00       		.byte	0
 1098 0151 00       		.byte	0
 1099 0152 00       		.byte	0
 1100 0153 38       		.byte	56
 1101 0154 60       		.byte	96
 1102 0155 C0       		.byte	-64
 1103 0156 C0       		.byte	-64
 1104 0157 FC       		.byte	-4
 1105 0158 C6       		.byte	-58
 1106 0159 C6       		.byte	-58
 1107 015a C6       		.byte	-58
 1108 015b 7C       		.byte	124
 1109 015c 00       		.byte	0
 1110 015d 00       		.byte	0
 1111 015e 00       		.byte	0
 1112 015f 00       		.byte	0
 1113 0160 00       		.byte	0
 1114 0161 FE       		.byte	-2
 1115 0162 C6       		.byte	-58
 1116 0163 06       		.byte	6
 1117 0164 0C       		.byte	12
 1118 0165 18       		.byte	24
 1119 0166 30       		.byte	48
 1120 0167 30       		.byte	48
 1121 0168 30       		.byte	48
 1122 0169 30       		.byte	48
 1123 016a 00       		.byte	0
 1124 016b 00       		.byte	0
 1125 016c 00       		.byte	0
 1126 016d 00       		.byte	0
 1127 016e 00       		.byte	0
 1128 016f 7C       		.byte	124
 1129 0170 C6       		.byte	-58
 1130 0171 C6       		.byte	-58
 1131 0172 C6       		.byte	-58
 1132 0173 7C       		.byte	124
 1133 0174 C6       		.byte	-58
 1134 0175 C6       		.byte	-58
 1135 0176 C6       		.byte	-58
 1136 0177 7C       		.byte	124
 1137 0178 00       		.byte	0
 1138 0179 00       		.byte	0
 1139 017a 00       		.byte	0
 1140 017b 00       		.byte	0
ARM GAS  /cygdrive/c/Users/embedded/AppData/Local/Temp/ccj5zCCc.s 			page 21


 1141 017c 00       		.byte	0
 1142 017d 7C       		.byte	124
 1143 017e C6       		.byte	-58
 1144 017f C6       		.byte	-58
 1145 0180 C6       		.byte	-58
 1146 0181 7E       		.byte	126
 1147 0182 06       		.byte	6
 1148 0183 06       		.byte	6
 1149 0184 0C       		.byte	12
 1150 0185 78       		.byte	120
 1151 0186 00       		.byte	0
 1152 0187 00       		.byte	0
 1153 0188 00       		.byte	0
 1154 0189 00       		.byte	0
 1155 018a 00       		.byte	0
 1156 018b 00       		.byte	0
 1157 018c 18       		.byte	24
 1158 018d 18       		.byte	24
 1159 018e 00       		.byte	0
 1160 018f 00       		.byte	0
 1161 0190 00       		.byte	0
 1162 0191 18       		.byte	24
 1163 0192 18       		.byte	24
 1164 0193 00       		.byte	0
 1165 0194 00       		.byte	0
 1166 0195 00       		.byte	0
 1167 0196 00       		.byte	0
 1168 0197 00       		.byte	0
 1169 0198 00       		.byte	0
 1170 0199 00       		.byte	0
 1171 019a 18       		.byte	24
 1172 019b 18       		.byte	24
 1173 019c 00       		.byte	0
 1174 019d 00       		.byte	0
 1175 019e 00       		.byte	0
 1176 019f 18       		.byte	24
 1177 01a0 18       		.byte	24
 1178 01a1 30       		.byte	48
 1179 01a2 00       		.byte	0
 1180 01a3 00       		.byte	0
 1181 01a4 00       		.byte	0
 1182 01a5 00       		.byte	0
 1183 01a6 00       		.byte	0
 1184 01a7 0C       		.byte	12
 1185 01a8 18       		.byte	24
 1186 01a9 30       		.byte	48
 1187 01aa 60       		.byte	96
 1188 01ab C0       		.byte	-64
 1189 01ac 60       		.byte	96
 1190 01ad 30       		.byte	48
 1191 01ae 18       		.byte	24
 1192 01af 0C       		.byte	12
 1193 01b0 00       		.byte	0
 1194 01b1 00       		.byte	0
 1195 01b2 00       		.byte	0
 1196 01b3 00       		.byte	0
 1197 01b4 00       		.byte	0
ARM GAS  /cygdrive/c/Users/embedded/AppData/Local/Temp/ccj5zCCc.s 			page 22


 1198 01b5 00       		.byte	0
 1199 01b6 00       		.byte	0
 1200 01b7 00       		.byte	0
 1201 01b8 7E       		.byte	126
 1202 01b9 00       		.byte	0
 1203 01ba 00       		.byte	0
 1204 01bb 7E       		.byte	126
 1205 01bc 00       		.byte	0
 1206 01bd 00       		.byte	0
 1207 01be 00       		.byte	0
 1208 01bf 00       		.byte	0
 1209 01c0 00       		.byte	0
 1210 01c1 00       		.byte	0
 1211 01c2 00       		.byte	0
 1212 01c3 60       		.byte	96
 1213 01c4 30       		.byte	48
 1214 01c5 18       		.byte	24
 1215 01c6 0C       		.byte	12
 1216 01c7 06       		.byte	6
 1217 01c8 0C       		.byte	12
 1218 01c9 18       		.byte	24
 1219 01ca 30       		.byte	48
 1220 01cb 60       		.byte	96
 1221 01cc 00       		.byte	0
 1222 01cd 00       		.byte	0
 1223 01ce 00       		.byte	0
 1224 01cf 00       		.byte	0
 1225 01d0 00       		.byte	0
 1226 01d1 7C       		.byte	124
 1227 01d2 C6       		.byte	-58
 1228 01d3 C6       		.byte	-58
 1229 01d4 0C       		.byte	12
 1230 01d5 18       		.byte	24
 1231 01d6 18       		.byte	24
 1232 01d7 00       		.byte	0
 1233 01d8 18       		.byte	24
 1234 01d9 18       		.byte	24
 1235 01da 00       		.byte	0
 1236 01db 00       		.byte	0
 1237 01dc 00       		.byte	0
 1238 01dd 00       		.byte	0
 1239 01de 00       		.byte	0
 1240 01df 7C       		.byte	124
 1241 01e0 C6       		.byte	-58
 1242 01e1 C6       		.byte	-58
 1243 01e2 DE       		.byte	-34
 1244 01e3 DE       		.byte	-34
 1245 01e4 DE       		.byte	-34
 1246 01e5 DC       		.byte	-36
 1247 01e6 C0       		.byte	-64
 1248 01e7 7C       		.byte	124
 1249 01e8 00       		.byte	0
 1250 01e9 00       		.byte	0
 1251 01ea 00       		.byte	0
 1252 01eb 00       		.byte	0
 1253 01ec 00       		.byte	0
 1254 01ed 10       		.byte	16
ARM GAS  /cygdrive/c/Users/embedded/AppData/Local/Temp/ccj5zCCc.s 			page 23


 1255 01ee 38       		.byte	56
 1256 01ef 6C       		.byte	108
 1257 01f0 C6       		.byte	-58
 1258 01f1 C6       		.byte	-58
 1259 01f2 FE       		.byte	-2
 1260 01f3 C6       		.byte	-58
 1261 01f4 C6       		.byte	-58
 1262 01f5 C6       		.byte	-58
 1263 01f6 00       		.byte	0
 1264 01f7 00       		.byte	0
 1265 01f8 00       		.byte	0
 1266 01f9 00       		.byte	0
 1267 01fa 00       		.byte	0
 1268 01fb FC       		.byte	-4
 1269 01fc 66       		.byte	102
 1270 01fd 66       		.byte	102
 1271 01fe 66       		.byte	102
 1272 01ff 7C       		.byte	124
 1273 0200 66       		.byte	102
 1274 0201 66       		.byte	102
 1275 0202 66       		.byte	102
 1276 0203 FC       		.byte	-4
 1277 0204 00       		.byte	0
 1278 0205 00       		.byte	0
 1279 0206 00       		.byte	0
 1280 0207 00       		.byte	0
 1281 0208 00       		.byte	0
 1282 0209 3C       		.byte	60
 1283 020a 66       		.byte	102
 1284 020b C2       		.byte	-62
 1285 020c C0       		.byte	-64
 1286 020d C0       		.byte	-64
 1287 020e C0       		.byte	-64
 1288 020f C2       		.byte	-62
 1289 0210 66       		.byte	102
 1290 0211 3C       		.byte	60
 1291 0212 00       		.byte	0
 1292 0213 00       		.byte	0
 1293 0214 00       		.byte	0
 1294 0215 00       		.byte	0
 1295 0216 00       		.byte	0
 1296 0217 F8       		.byte	-8
 1297 0218 6C       		.byte	108
 1298 0219 66       		.byte	102
 1299 021a 66       		.byte	102
 1300 021b 66       		.byte	102
 1301 021c 66       		.byte	102
 1302 021d 66       		.byte	102
 1303 021e 6C       		.byte	108
 1304 021f F8       		.byte	-8
 1305 0220 00       		.byte	0
 1306 0221 00       		.byte	0
 1307 0222 00       		.byte	0
 1308 0223 00       		.byte	0
 1309 0224 00       		.byte	0
 1310 0225 FE       		.byte	-2
 1311 0226 66       		.byte	102
ARM GAS  /cygdrive/c/Users/embedded/AppData/Local/Temp/ccj5zCCc.s 			page 24


 1312 0227 62       		.byte	98
 1313 0228 68       		.byte	104
 1314 0229 78       		.byte	120
 1315 022a 68       		.byte	104
 1316 022b 62       		.byte	98
 1317 022c 66       		.byte	102
 1318 022d FE       		.byte	-2
 1319 022e 00       		.byte	0
 1320 022f 00       		.byte	0
 1321 0230 00       		.byte	0
 1322 0231 00       		.byte	0
 1323 0232 00       		.byte	0
 1324 0233 FE       		.byte	-2
 1325 0234 66       		.byte	102
 1326 0235 62       		.byte	98
 1327 0236 68       		.byte	104
 1328 0237 78       		.byte	120
 1329 0238 68       		.byte	104
 1330 0239 60       		.byte	96
 1331 023a 60       		.byte	96
 1332 023b F0       		.byte	-16
 1333 023c 00       		.byte	0
 1334 023d 00       		.byte	0
 1335 023e 00       		.byte	0
 1336 023f 00       		.byte	0
 1337 0240 00       		.byte	0
 1338 0241 3C       		.byte	60
 1339 0242 66       		.byte	102
 1340 0243 C2       		.byte	-62
 1341 0244 C0       		.byte	-64
 1342 0245 C0       		.byte	-64
 1343 0246 DE       		.byte	-34
 1344 0247 C6       		.byte	-58
 1345 0248 66       		.byte	102
 1346 0249 3A       		.byte	58
 1347 024a 00       		.byte	0
 1348 024b 00       		.byte	0
 1349 024c 00       		.byte	0
 1350 024d 00       		.byte	0
 1351 024e 00       		.byte	0
 1352 024f C6       		.byte	-58
 1353 0250 C6       		.byte	-58
 1354 0251 C6       		.byte	-58
 1355 0252 C6       		.byte	-58
 1356 0253 FE       		.byte	-2
 1357 0254 C6       		.byte	-58
 1358 0255 C6       		.byte	-58
 1359 0256 C6       		.byte	-58
 1360 0257 C6       		.byte	-58
 1361 0258 00       		.byte	0
 1362 0259 00       		.byte	0
 1363 025a 00       		.byte	0
 1364 025b 00       		.byte	0
 1365 025c 00       		.byte	0
 1366 025d 3C       		.byte	60
 1367 025e 18       		.byte	24
 1368 025f 18       		.byte	24
ARM GAS  /cygdrive/c/Users/embedded/AppData/Local/Temp/ccj5zCCc.s 			page 25


 1369 0260 18       		.byte	24
 1370 0261 18       		.byte	24
 1371 0262 18       		.byte	24
 1372 0263 18       		.byte	24
 1373 0264 18       		.byte	24
 1374 0265 3C       		.byte	60
 1375 0266 00       		.byte	0
 1376 0267 00       		.byte	0
 1377 0268 00       		.byte	0
 1378 0269 00       		.byte	0
 1379 026a 00       		.byte	0
 1380 026b 1E       		.byte	30
 1381 026c 0C       		.byte	12
 1382 026d 0C       		.byte	12
 1383 026e 0C       		.byte	12
 1384 026f 0C       		.byte	12
 1385 0270 0C       		.byte	12
 1386 0271 CC       		.byte	-52
 1387 0272 CC       		.byte	-52
 1388 0273 78       		.byte	120
 1389 0274 00       		.byte	0
 1390 0275 00       		.byte	0
 1391 0276 00       		.byte	0
 1392 0277 00       		.byte	0
 1393 0278 00       		.byte	0
 1394 0279 E6       		.byte	-26
 1395 027a 66       		.byte	102
 1396 027b 6C       		.byte	108
 1397 027c 6C       		.byte	108
 1398 027d 78       		.byte	120
 1399 027e 6C       		.byte	108
 1400 027f 6C       		.byte	108
 1401 0280 66       		.byte	102
 1402 0281 E6       		.byte	-26
 1403 0282 00       		.byte	0
 1404 0283 00       		.byte	0
 1405 0284 00       		.byte	0
 1406 0285 00       		.byte	0
 1407 0286 00       		.byte	0
 1408 0287 F0       		.byte	-16
 1409 0288 60       		.byte	96
 1410 0289 60       		.byte	96
 1411 028a 60       		.byte	96
 1412 028b 60       		.byte	96
 1413 028c 60       		.byte	96
 1414 028d 62       		.byte	98
 1415 028e 66       		.byte	102
 1416 028f FE       		.byte	-2
 1417 0290 00       		.byte	0
 1418 0291 00       		.byte	0
 1419 0292 00       		.byte	0
 1420 0293 00       		.byte	0
 1421 0294 00       		.byte	0
 1422 0295 C6       		.byte	-58
 1423 0296 EE       		.byte	-18
 1424 0297 FE       		.byte	-2
 1425 0298 D6       		.byte	-42
ARM GAS  /cygdrive/c/Users/embedded/AppData/Local/Temp/ccj5zCCc.s 			page 26


 1426 0299 C6       		.byte	-58
 1427 029a C6       		.byte	-58
 1428 029b C6       		.byte	-58
 1429 029c C6       		.byte	-58
 1430 029d C6       		.byte	-58
 1431 029e 00       		.byte	0
 1432 029f 00       		.byte	0
 1433 02a0 00       		.byte	0
 1434 02a1 00       		.byte	0
 1435 02a2 00       		.byte	0
 1436 02a3 C6       		.byte	-58
 1437 02a4 E6       		.byte	-26
 1438 02a5 F6       		.byte	-10
 1439 02a6 FE       		.byte	-2
 1440 02a7 DE       		.byte	-34
 1441 02a8 CE       		.byte	-50
 1442 02a9 C6       		.byte	-58
 1443 02aa C6       		.byte	-58
 1444 02ab C6       		.byte	-58
 1445 02ac 00       		.byte	0
 1446 02ad 00       		.byte	0
 1447 02ae 00       		.byte	0
 1448 02af 00       		.byte	0
 1449 02b0 00       		.byte	0
 1450 02b1 7C       		.byte	124
 1451 02b2 C6       		.byte	-58
 1452 02b3 C6       		.byte	-58
 1453 02b4 C6       		.byte	-58
 1454 02b5 C6       		.byte	-58
 1455 02b6 C6       		.byte	-58
 1456 02b7 C6       		.byte	-58
 1457 02b8 C6       		.byte	-58
 1458 02b9 7C       		.byte	124
 1459 02ba 00       		.byte	0
 1460 02bb 00       		.byte	0
 1461 02bc 00       		.byte	0
 1462 02bd 00       		.byte	0
 1463 02be 00       		.byte	0
 1464 02bf FC       		.byte	-4
 1465 02c0 66       		.byte	102
 1466 02c1 66       		.byte	102
 1467 02c2 66       		.byte	102
 1468 02c3 7C       		.byte	124
 1469 02c4 60       		.byte	96
 1470 02c5 60       		.byte	96
 1471 02c6 60       		.byte	96
 1472 02c7 F0       		.byte	-16
 1473 02c8 00       		.byte	0
 1474 02c9 00       		.byte	0
 1475 02ca 00       		.byte	0
 1476 02cb 00       		.byte	0
 1477 02cc 00       		.byte	0
 1478 02cd 7C       		.byte	124
 1479 02ce C6       		.byte	-58
 1480 02cf C6       		.byte	-58
 1481 02d0 C6       		.byte	-58
 1482 02d1 C6       		.byte	-58
ARM GAS  /cygdrive/c/Users/embedded/AppData/Local/Temp/ccj5zCCc.s 			page 27


 1483 02d2 C6       		.byte	-58
 1484 02d3 D6       		.byte	-42
 1485 02d4 DE       		.byte	-34
 1486 02d5 7C       		.byte	124
 1487 02d6 0E       		.byte	14
 1488 02d7 00       		.byte	0
 1489 02d8 00       		.byte	0
 1490 02d9 00       		.byte	0
 1491 02da 00       		.byte	0
 1492 02db FC       		.byte	-4
 1493 02dc 66       		.byte	102
 1494 02dd 66       		.byte	102
 1495 02de 66       		.byte	102
 1496 02df 7C       		.byte	124
 1497 02e0 6C       		.byte	108
 1498 02e1 66       		.byte	102
 1499 02e2 66       		.byte	102
 1500 02e3 E6       		.byte	-26
 1501 02e4 00       		.byte	0
 1502 02e5 00       		.byte	0
 1503 02e6 00       		.byte	0
 1504 02e7 00       		.byte	0
 1505 02e8 00       		.byte	0
 1506 02e9 7C       		.byte	124
 1507 02ea C6       		.byte	-58
 1508 02eb C6       		.byte	-58
 1509 02ec 60       		.byte	96
 1510 02ed 38       		.byte	56
 1511 02ee 0C       		.byte	12
 1512 02ef C6       		.byte	-58
 1513 02f0 C6       		.byte	-58
 1514 02f1 7C       		.byte	124
 1515 02f2 00       		.byte	0
 1516 02f3 00       		.byte	0
 1517 02f4 00       		.byte	0
 1518 02f5 00       		.byte	0
 1519 02f6 00       		.byte	0
 1520 02f7 7E       		.byte	126
 1521 02f8 7E       		.byte	126
 1522 02f9 5A       		.byte	90
 1523 02fa 18       		.byte	24
 1524 02fb 18       		.byte	24
 1525 02fc 18       		.byte	24
 1526 02fd 18       		.byte	24
 1527 02fe 18       		.byte	24
 1528 02ff 3C       		.byte	60
 1529 0300 00       		.byte	0
 1530 0301 00       		.byte	0
 1531 0302 00       		.byte	0
 1532 0303 00       		.byte	0
 1533 0304 00       		.byte	0
 1534 0305 C6       		.byte	-58
 1535 0306 C6       		.byte	-58
 1536 0307 C6       		.byte	-58
 1537 0308 C6       		.byte	-58
 1538 0309 C6       		.byte	-58
 1539 030a C6       		.byte	-58
ARM GAS  /cygdrive/c/Users/embedded/AppData/Local/Temp/ccj5zCCc.s 			page 28


 1540 030b C6       		.byte	-58
 1541 030c C6       		.byte	-58
 1542 030d 7C       		.byte	124
 1543 030e 00       		.byte	0
 1544 030f 00       		.byte	0
 1545 0310 00       		.byte	0
 1546 0311 00       		.byte	0
 1547 0312 00       		.byte	0
 1548 0313 C6       		.byte	-58
 1549 0314 C6       		.byte	-58
 1550 0315 C6       		.byte	-58
 1551 0316 C6       		.byte	-58
 1552 0317 C6       		.byte	-58
 1553 0318 C6       		.byte	-58
 1554 0319 6C       		.byte	108
 1555 031a 38       		.byte	56
 1556 031b 10       		.byte	16
 1557 031c 00       		.byte	0
 1558 031d 00       		.byte	0
 1559 031e 00       		.byte	0
 1560 031f 00       		.byte	0
 1561 0320 00       		.byte	0
 1562 0321 C6       		.byte	-58
 1563 0322 C6       		.byte	-58
 1564 0323 C6       		.byte	-58
 1565 0324 C6       		.byte	-58
 1566 0325 D6       		.byte	-42
 1567 0326 D6       		.byte	-42
 1568 0327 FE       		.byte	-2
 1569 0328 6C       		.byte	108
 1570 0329 6C       		.byte	108
 1571 032a 00       		.byte	0
 1572 032b 00       		.byte	0
 1573 032c 00       		.byte	0
 1574 032d 00       		.byte	0
 1575 032e 00       		.byte	0
 1576 032f C6       		.byte	-58
 1577 0330 C6       		.byte	-58
 1578 0331 C6       		.byte	-58
 1579 0332 7C       		.byte	124
 1580 0333 38       		.byte	56
 1581 0334 7C       		.byte	124
 1582 0335 C6       		.byte	-58
 1583 0336 C6       		.byte	-58
 1584 0337 C6       		.byte	-58
 1585 0338 00       		.byte	0
 1586 0339 00       		.byte	0
 1587 033a 00       		.byte	0
 1588 033b 00       		.byte	0
 1589 033c 00       		.byte	0
 1590 033d 66       		.byte	102
 1591 033e 66       		.byte	102
 1592 033f 66       		.byte	102
 1593 0340 66       		.byte	102
 1594 0341 3C       		.byte	60
 1595 0342 18       		.byte	24
 1596 0343 18       		.byte	24
ARM GAS  /cygdrive/c/Users/embedded/AppData/Local/Temp/ccj5zCCc.s 			page 29


 1597 0344 18       		.byte	24
 1598 0345 3C       		.byte	60
 1599 0346 00       		.byte	0
 1600 0347 00       		.byte	0
 1601 0348 00       		.byte	0
 1602 0349 00       		.byte	0
 1603 034a 00       		.byte	0
 1604 034b FE       		.byte	-2
 1605 034c C6       		.byte	-58
 1606 034d 8C       		.byte	-116
 1607 034e 18       		.byte	24
 1608 034f 30       		.byte	48
 1609 0350 60       		.byte	96
 1610 0351 C2       		.byte	-62
 1611 0352 C6       		.byte	-58
 1612 0353 FE       		.byte	-2
 1613 0354 00       		.byte	0
 1614 0355 00       		.byte	0
 1615 0356 00       		.byte	0
 1616 0357 00       		.byte	0
 1617 0358 00       		.byte	0
 1618 0359 3C       		.byte	60
 1619 035a 30       		.byte	48
 1620 035b 30       		.byte	48
 1621 035c 30       		.byte	48
 1622 035d 30       		.byte	48
 1623 035e 30       		.byte	48
 1624 035f 30       		.byte	48
 1625 0360 30       		.byte	48
 1626 0361 3C       		.byte	60
 1627 0362 00       		.byte	0
 1628 0363 00       		.byte	0
 1629 0364 00       		.byte	0
 1630 0365 00       		.byte	0
 1631 0366 00       		.byte	0
 1632 0367 80       		.byte	-128
 1633 0368 C0       		.byte	-64
 1634 0369 E0       		.byte	-32
 1635 036a 70       		.byte	112
 1636 036b 38       		.byte	56
 1637 036c 1C       		.byte	28
 1638 036d 0E       		.byte	14
 1639 036e 06       		.byte	6
 1640 036f 02       		.byte	2
 1641 0370 00       		.byte	0
 1642 0371 00       		.byte	0
 1643 0372 00       		.byte	0
 1644 0373 00       		.byte	0
 1645 0374 00       		.byte	0
 1646 0375 3C       		.byte	60
 1647 0376 0C       		.byte	12
 1648 0377 0C       		.byte	12
 1649 0378 0C       		.byte	12
 1650 0379 0C       		.byte	12
 1651 037a 0C       		.byte	12
 1652 037b 0C       		.byte	12
 1653 037c 0C       		.byte	12
ARM GAS  /cygdrive/c/Users/embedded/AppData/Local/Temp/ccj5zCCc.s 			page 30


 1654 037d 3C       		.byte	60
 1655 037e 00       		.byte	0
 1656 037f 00       		.byte	0
 1657 0380 10       		.byte	16
 1658 0381 38       		.byte	56
 1659 0382 6C       		.byte	108
 1660 0383 C6       		.byte	-58
 1661 0384 00       		.byte	0
 1662 0385 00       		.byte	0
 1663 0386 00       		.byte	0
 1664 0387 00       		.byte	0
 1665 0388 00       		.byte	0
 1666 0389 00       		.byte	0
 1667 038a 00       		.byte	0
 1668 038b 00       		.byte	0
 1669 038c 00       		.byte	0
 1670 038d 00       		.byte	0
 1671 038e 00       		.byte	0
 1672 038f 00       		.byte	0
 1673 0390 00       		.byte	0
 1674 0391 00       		.byte	0
 1675 0392 00       		.byte	0
 1676 0393 00       		.byte	0
 1677 0394 00       		.byte	0
 1678 0395 00       		.byte	0
 1679 0396 00       		.byte	0
 1680 0397 00       		.byte	0
 1681 0398 00       		.byte	0
 1682 0399 00       		.byte	0
 1683 039a 00       		.byte	0
 1684 039b FF       		.byte	-1
 1685 039c 00       		.byte	0
 1686 039d 30       		.byte	48
 1687 039e 18       		.byte	24
 1688 039f 0C       		.byte	12
 1689 03a0 00       		.byte	0
 1690 03a1 00       		.byte	0
 1691 03a2 00       		.byte	0
 1692 03a3 00       		.byte	0
 1693 03a4 00       		.byte	0
 1694 03a5 00       		.byte	0
 1695 03a6 00       		.byte	0
 1696 03a7 00       		.byte	0
 1697 03a8 00       		.byte	0
 1698 03a9 00       		.byte	0
 1699 03aa 00       		.byte	0
 1700 03ab 00       		.byte	0
 1701 03ac 00       		.byte	0
 1702 03ad 00       		.byte	0
 1703 03ae 00       		.byte	0
 1704 03af 00       		.byte	0
 1705 03b0 78       		.byte	120
 1706 03b1 0C       		.byte	12
 1707 03b2 7C       		.byte	124
 1708 03b3 CC       		.byte	-52
 1709 03b4 CC       		.byte	-52
 1710 03b5 76       		.byte	118
ARM GAS  /cygdrive/c/Users/embedded/AppData/Local/Temp/ccj5zCCc.s 			page 31


 1711 03b6 00       		.byte	0
 1712 03b7 00       		.byte	0
 1713 03b8 00       		.byte	0
 1714 03b9 00       		.byte	0
 1715 03ba 00       		.byte	0
 1716 03bb E0       		.byte	-32
 1717 03bc 60       		.byte	96
 1718 03bd 60       		.byte	96
 1719 03be 78       		.byte	120
 1720 03bf 6C       		.byte	108
 1721 03c0 66       		.byte	102
 1722 03c1 66       		.byte	102
 1723 03c2 66       		.byte	102
 1724 03c3 7C       		.byte	124
 1725 03c4 00       		.byte	0
 1726 03c5 00       		.byte	0
 1727 03c6 00       		.byte	0
 1728 03c7 00       		.byte	0
 1729 03c8 00       		.byte	0
 1730 03c9 00       		.byte	0
 1731 03ca 00       		.byte	0
 1732 03cb 00       		.byte	0
 1733 03cc 7C       		.byte	124
 1734 03cd C6       		.byte	-58
 1735 03ce C0       		.byte	-64
 1736 03cf C0       		.byte	-64
 1737 03d0 C6       		.byte	-58
 1738 03d1 7C       		.byte	124
 1739 03d2 00       		.byte	0
 1740 03d3 00       		.byte	0
 1741 03d4 00       		.byte	0
 1742 03d5 00       		.byte	0
 1743 03d6 00       		.byte	0
 1744 03d7 1C       		.byte	28
 1745 03d8 0C       		.byte	12
 1746 03d9 0C       		.byte	12
 1747 03da 3C       		.byte	60
 1748 03db 6C       		.byte	108
 1749 03dc CC       		.byte	-52
 1750 03dd CC       		.byte	-52
 1751 03de CC       		.byte	-52
 1752 03df 76       		.byte	118
 1753 03e0 00       		.byte	0
 1754 03e1 00       		.byte	0
 1755 03e2 00       		.byte	0
 1756 03e3 00       		.byte	0
 1757 03e4 00       		.byte	0
 1758 03e5 00       		.byte	0
 1759 03e6 00       		.byte	0
 1760 03e7 00       		.byte	0
 1761 03e8 7C       		.byte	124
 1762 03e9 C6       		.byte	-58
 1763 03ea FE       		.byte	-2
 1764 03eb C0       		.byte	-64
 1765 03ec C6       		.byte	-58
 1766 03ed 7C       		.byte	124
 1767 03ee 00       		.byte	0
ARM GAS  /cygdrive/c/Users/embedded/AppData/Local/Temp/ccj5zCCc.s 			page 32


 1768 03ef 00       		.byte	0
 1769 03f0 00       		.byte	0
 1770 03f1 00       		.byte	0
 1771 03f2 00       		.byte	0
 1772 03f3 1C       		.byte	28
 1773 03f4 36       		.byte	54
 1774 03f5 32       		.byte	50
 1775 03f6 30       		.byte	48
 1776 03f7 7C       		.byte	124
 1777 03f8 30       		.byte	48
 1778 03f9 30       		.byte	48
 1779 03fa 30       		.byte	48
 1780 03fb 78       		.byte	120
 1781 03fc 00       		.byte	0
 1782 03fd 00       		.byte	0
 1783 03fe 00       		.byte	0
 1784 03ff 00       		.byte	0
 1785 0400 00       		.byte	0
 1786 0401 00       		.byte	0
 1787 0402 00       		.byte	0
 1788 0403 00       		.byte	0
 1789 0404 76       		.byte	118
 1790 0405 CC       		.byte	-52
 1791 0406 CC       		.byte	-52
 1792 0407 CC       		.byte	-52
 1793 0408 7C       		.byte	124
 1794 0409 0C       		.byte	12
 1795 040a CC       		.byte	-52
 1796 040b 78       		.byte	120
 1797 040c 00       		.byte	0
 1798 040d 00       		.byte	0
 1799 040e 00       		.byte	0
 1800 040f E0       		.byte	-32
 1801 0410 60       		.byte	96
 1802 0411 60       		.byte	96
 1803 0412 6C       		.byte	108
 1804 0413 76       		.byte	118
 1805 0414 66       		.byte	102
 1806 0415 66       		.byte	102
 1807 0416 66       		.byte	102
 1808 0417 E6       		.byte	-26
 1809 0418 00       		.byte	0
 1810 0419 00       		.byte	0
 1811 041a 00       		.byte	0
 1812 041b 00       		.byte	0
 1813 041c 00       		.byte	0
 1814 041d 18       		.byte	24
 1815 041e 18       		.byte	24
 1816 041f 00       		.byte	0
 1817 0420 38       		.byte	56
 1818 0421 18       		.byte	24
 1819 0422 18       		.byte	24
 1820 0423 18       		.byte	24
 1821 0424 18       		.byte	24
 1822 0425 3C       		.byte	60
 1823 0426 00       		.byte	0
 1824 0427 00       		.byte	0
ARM GAS  /cygdrive/c/Users/embedded/AppData/Local/Temp/ccj5zCCc.s 			page 33


 1825 0428 00       		.byte	0
 1826 0429 00       		.byte	0
 1827 042a 00       		.byte	0
 1828 042b 06       		.byte	6
 1829 042c 06       		.byte	6
 1830 042d 00       		.byte	0
 1831 042e 0E       		.byte	14
 1832 042f 06       		.byte	6
 1833 0430 06       		.byte	6
 1834 0431 06       		.byte	6
 1835 0432 06       		.byte	6
 1836 0433 66       		.byte	102
 1837 0434 66       		.byte	102
 1838 0435 3C       		.byte	60
 1839 0436 00       		.byte	0
 1840 0437 00       		.byte	0
 1841 0438 00       		.byte	0
 1842 0439 E0       		.byte	-32
 1843 043a 60       		.byte	96
 1844 043b 60       		.byte	96
 1845 043c 66       		.byte	102
 1846 043d 6C       		.byte	108
 1847 043e 78       		.byte	120
 1848 043f 6C       		.byte	108
 1849 0440 66       		.byte	102
 1850 0441 E6       		.byte	-26
 1851 0442 00       		.byte	0
 1852 0443 00       		.byte	0
 1853 0444 00       		.byte	0
 1854 0445 00       		.byte	0
 1855 0446 00       		.byte	0
 1856 0447 38       		.byte	56
 1857 0448 18       		.byte	24
 1858 0449 18       		.byte	24
 1859 044a 18       		.byte	24
 1860 044b 18       		.byte	24
 1861 044c 18       		.byte	24
 1862 044d 18       		.byte	24
 1863 044e 18       		.byte	24
 1864 044f 3C       		.byte	60
 1865 0450 00       		.byte	0
 1866 0451 00       		.byte	0
 1867 0452 00       		.byte	0
 1868 0453 00       		.byte	0
 1869 0454 00       		.byte	0
 1870 0455 00       		.byte	0
 1871 0456 00       		.byte	0
 1872 0457 00       		.byte	0
 1873 0458 EC       		.byte	-20
 1874 0459 FE       		.byte	-2
 1875 045a D6       		.byte	-42
 1876 045b D6       		.byte	-42
 1877 045c D6       		.byte	-42
 1878 045d D6       		.byte	-42
 1879 045e 00       		.byte	0
 1880 045f 00       		.byte	0
 1881 0460 00       		.byte	0
ARM GAS  /cygdrive/c/Users/embedded/AppData/Local/Temp/ccj5zCCc.s 			page 34


 1882 0461 00       		.byte	0
 1883 0462 00       		.byte	0
 1884 0463 00       		.byte	0
 1885 0464 00       		.byte	0
 1886 0465 00       		.byte	0
 1887 0466 DC       		.byte	-36
 1888 0467 66       		.byte	102
 1889 0468 66       		.byte	102
 1890 0469 66       		.byte	102
 1891 046a 66       		.byte	102
 1892 046b 66       		.byte	102
 1893 046c 00       		.byte	0
 1894 046d 00       		.byte	0
 1895 046e 00       		.byte	0
 1896 046f 00       		.byte	0
 1897 0470 00       		.byte	0
 1898 0471 00       		.byte	0
 1899 0472 00       		.byte	0
 1900 0473 00       		.byte	0
 1901 0474 7C       		.byte	124
 1902 0475 C6       		.byte	-58
 1903 0476 C6       		.byte	-58
 1904 0477 C6       		.byte	-58
 1905 0478 C6       		.byte	-58
 1906 0479 7C       		.byte	124
 1907 047a 00       		.byte	0
 1908 047b 00       		.byte	0
 1909 047c 00       		.byte	0
 1910 047d 00       		.byte	0
 1911 047e 00       		.byte	0
 1912 047f 00       		.byte	0
 1913 0480 00       		.byte	0
 1914 0481 00       		.byte	0
 1915 0482 DC       		.byte	-36
 1916 0483 66       		.byte	102
 1917 0484 66       		.byte	102
 1918 0485 66       		.byte	102
 1919 0486 7C       		.byte	124
 1920 0487 60       		.byte	96
 1921 0488 60       		.byte	96
 1922 0489 F0       		.byte	-16
 1923 048a 00       		.byte	0
 1924 048b 00       		.byte	0
 1925 048c 00       		.byte	0
 1926 048d 00       		.byte	0
 1927 048e 00       		.byte	0
 1928 048f 00       		.byte	0
 1929 0490 76       		.byte	118
 1930 0491 CC       		.byte	-52
 1931 0492 CC       		.byte	-52
 1932 0493 CC       		.byte	-52
 1933 0494 7C       		.byte	124
 1934 0495 0C       		.byte	12
 1935 0496 0C       		.byte	12
 1936 0497 1E       		.byte	30
 1937 0498 00       		.byte	0
 1938 0499 00       		.byte	0
ARM GAS  /cygdrive/c/Users/embedded/AppData/Local/Temp/ccj5zCCc.s 			page 35


 1939 049a 00       		.byte	0
 1940 049b 00       		.byte	0
 1941 049c 00       		.byte	0
 1942 049d 00       		.byte	0
 1943 049e DC       		.byte	-36
 1944 049f 76       		.byte	118
 1945 04a0 66       		.byte	102
 1946 04a1 60       		.byte	96
 1947 04a2 60       		.byte	96
 1948 04a3 F0       		.byte	-16
 1949 04a4 00       		.byte	0
 1950 04a5 00       		.byte	0
 1951 04a6 00       		.byte	0
 1952 04a7 00       		.byte	0
 1953 04a8 00       		.byte	0
 1954 04a9 00       		.byte	0
 1955 04aa 00       		.byte	0
 1956 04ab 00       		.byte	0
 1957 04ac 7C       		.byte	124
 1958 04ad C6       		.byte	-58
 1959 04ae 70       		.byte	112
 1960 04af 1C       		.byte	28
 1961 04b0 C6       		.byte	-58
 1962 04b1 7C       		.byte	124
 1963 04b2 00       		.byte	0
 1964 04b3 00       		.byte	0
 1965 04b4 00       		.byte	0
 1966 04b5 00       		.byte	0
 1967 04b6 00       		.byte	0
 1968 04b7 10       		.byte	16
 1969 04b8 30       		.byte	48
 1970 04b9 30       		.byte	48
 1971 04ba FC       		.byte	-4
 1972 04bb 30       		.byte	48
 1973 04bc 30       		.byte	48
 1974 04bd 30       		.byte	48
 1975 04be 36       		.byte	54
 1976 04bf 1C       		.byte	28
 1977 04c0 00       		.byte	0
 1978 04c1 00       		.byte	0
 1979 04c2 00       		.byte	0
 1980 04c3 00       		.byte	0
 1981 04c4 00       		.byte	0
 1982 04c5 00       		.byte	0
 1983 04c6 00       		.byte	0
 1984 04c7 00       		.byte	0
 1985 04c8 CC       		.byte	-52
 1986 04c9 CC       		.byte	-52
 1987 04ca CC       		.byte	-52
 1988 04cb CC       		.byte	-52
 1989 04cc CC       		.byte	-52
 1990 04cd 76       		.byte	118
 1991 04ce 00       		.byte	0
 1992 04cf 00       		.byte	0
 1993 04d0 00       		.byte	0
 1994 04d1 00       		.byte	0
 1995 04d2 00       		.byte	0
ARM GAS  /cygdrive/c/Users/embedded/AppData/Local/Temp/ccj5zCCc.s 			page 36


 1996 04d3 00       		.byte	0
 1997 04d4 00       		.byte	0
 1998 04d5 00       		.byte	0
 1999 04d6 C6       		.byte	-58
 2000 04d7 C6       		.byte	-58
 2001 04d8 C6       		.byte	-58
 2002 04d9 6C       		.byte	108
 2003 04da 38       		.byte	56
 2004 04db 10       		.byte	16
 2005 04dc 00       		.byte	0
 2006 04dd 00       		.byte	0
 2007 04de 00       		.byte	0
 2008 04df 00       		.byte	0
 2009 04e0 00       		.byte	0
 2010 04e1 00       		.byte	0
 2011 04e2 00       		.byte	0
 2012 04e3 00       		.byte	0
 2013 04e4 C6       		.byte	-58
 2014 04e5 C6       		.byte	-58
 2015 04e6 D6       		.byte	-42
 2016 04e7 D6       		.byte	-42
 2017 04e8 FE       		.byte	-2
 2018 04e9 6C       		.byte	108
 2019 04ea 00       		.byte	0
 2020 04eb 00       		.byte	0
 2021 04ec 00       		.byte	0
 2022 04ed 00       		.byte	0
 2023 04ee 00       		.byte	0
 2024 04ef 00       		.byte	0
 2025 04f0 00       		.byte	0
 2026 04f1 00       		.byte	0
 2027 04f2 C6       		.byte	-58
 2028 04f3 6C       		.byte	108
 2029 04f4 38       		.byte	56
 2030 04f5 38       		.byte	56
 2031 04f6 6C       		.byte	108
 2032 04f7 C6       		.byte	-58
 2033 04f8 00       		.byte	0
 2034 04f9 00       		.byte	0
 2035 04fa 00       		.byte	0
 2036 04fb 00       		.byte	0
 2037 04fc 00       		.byte	0
 2038 04fd 00       		.byte	0
 2039 04fe 00       		.byte	0
 2040 04ff 00       		.byte	0
 2041 0500 C6       		.byte	-58
 2042 0501 C6       		.byte	-58
 2043 0502 C6       		.byte	-58
 2044 0503 C6       		.byte	-58
 2045 0504 7E       		.byte	126
 2046 0505 06       		.byte	6
 2047 0506 0C       		.byte	12
 2048 0507 78       		.byte	120
 2049 0508 00       		.byte	0
 2050 0509 00       		.byte	0
 2051 050a 00       		.byte	0
 2052 050b 00       		.byte	0
ARM GAS  /cygdrive/c/Users/embedded/AppData/Local/Temp/ccj5zCCc.s 			page 37


 2053 050c 00       		.byte	0
 2054 050d 00       		.byte	0
 2055 050e FE       		.byte	-2
 2056 050f CC       		.byte	-52
 2057 0510 18       		.byte	24
 2058 0511 30       		.byte	48
 2059 0512 66       		.byte	102
 2060 0513 FE       		.byte	-2
 2061 0514 00       		.byte	0
 2062 0515 00       		.byte	0
 2063 0516 00       		.byte	0
 2064 0517 00       		.byte	0
 2065 0518 00       		.byte	0
 2066 0519 0E       		.byte	14
 2067 051a 18       		.byte	24
 2068 051b 18       		.byte	24
 2069 051c 18       		.byte	24
 2070 051d 70       		.byte	112
 2071 051e 18       		.byte	24
 2072 051f 18       		.byte	24
 2073 0520 18       		.byte	24
 2074 0521 0E       		.byte	14
 2075 0522 00       		.byte	0
 2076 0523 00       		.byte	0
 2077 0524 00       		.byte	0
 2078 0525 00       		.byte	0
 2079 0526 00       		.byte	0
 2080 0527 18       		.byte	24
 2081 0528 18       		.byte	24
 2082 0529 18       		.byte	24
 2083 052a 18       		.byte	24
 2084 052b 18       		.byte	24
 2085 052c 18       		.byte	24
 2086 052d 18       		.byte	24
 2087 052e 18       		.byte	24
 2088 052f 18       		.byte	24
 2089 0530 00       		.byte	0
 2090 0531 00       		.byte	0
 2091 0532 00       		.byte	0
 2092 0533 00       		.byte	0
 2093 0534 00       		.byte	0
 2094 0535 70       		.byte	112
 2095 0536 18       		.byte	24
 2096 0537 18       		.byte	24
 2097 0538 18       		.byte	24
 2098 0539 0E       		.byte	14
 2099 053a 18       		.byte	24
 2100 053b 18       		.byte	24
 2101 053c 18       		.byte	24
 2102 053d 70       		.byte	112
 2103 053e 00       		.byte	0
 2104 053f 00       		.byte	0
 2105 0540 00       		.byte	0
 2106 0541 76       		.byte	118
 2107 0542 DC       		.byte	-36
 2108 0543 00       		.byte	0
 2109 0544 00       		.byte	0
ARM GAS  /cygdrive/c/Users/embedded/AppData/Local/Temp/ccj5zCCc.s 			page 38


 2110 0545 00       		.byte	0
 2111 0546 00       		.byte	0
 2112 0547 00       		.byte	0
 2113 0548 00       		.byte	0
 2114 0549 00       		.byte	0
 2115 054a 00       		.byte	0
 2116 054b 00       		.byte	0
 2117 054c 00       		.byte	0
 2118 054d 00       		.byte	0
 2119 054e 00       		.byte	0
 2120 054f 00       		.byte	0
 2121 0550 00       		.byte	0
 2122 0551 00       		.byte	0
 2123 0552 00       		.byte	0
 2124 0553 10       		.byte	16
 2125 0554 38       		.byte	56
 2126 0555 6C       		.byte	108
 2127 0556 C6       		.byte	-58
 2128 0557 C6       		.byte	-58
 2129 0558 FE       		.byte	-2
 2130 0559 00       		.byte	0
 2131 055a 00       		.byte	0
 2132 055b 00       		.byte	0
 2133              		.bss
 2134              	lcd_x:
 2135 0000 00       		.space	1
 2136              	lcd_y:
 2137 0001 00       		.space	1
 2138              	bkgColor:
 2139 0002 00       		.space	1
 2140              	textColor:
 2141 0003 00       		.space	1
 2142              	setcolmark:
 2143 0004 00       		.space	1
 2144              		.ident	"GCC: (GNU) 4.1.1"
ARM GAS  /cygdrive/c/Users/embedded/AppData/Local/Temp/ccj5zCCc.s 			page 39


DEFINED SYMBOLS
                            *ABS*:00000000 lcd.c
/cygdrive/c/Users/embedded/AppData/Local/Temp/ccj5zCCc.s:1      .text:00000000 $t
/cygdrive/c/Users/embedded/AppData/Local/Temp/ccj5zCCc.s:9      .text:00000000 lcdColor
/cygdrive/c/Users/embedded/AppData/Local/Temp/ccj5zCCc.s:20     .text:0000000c $d
/cygdrive/c/Users/embedded/AppData/Local/Temp/ccj5zCCc.s:2138   .bss:00000002 bkgColor
/cygdrive/c/Users/embedded/AppData/Local/Temp/ccj5zCCc.s:2140   .bss:00000003 textColor
/cygdrive/c/Users/embedded/AppData/Local/Temp/ccj5zCCc.s:28     .text:00000014 lcdWrdata
/cygdrive/c/Users/embedded/AppData/Local/Temp/ccj5zCCc.s:25     .text:00000014 $t
/cygdrive/c/Users/embedded/AppData/Local/Temp/ccj5zCCc.s:43     .text:00000024 lcdWrcmd
/cygdrive/c/Users/embedded/AppData/Local/Temp/ccj5zCCc.s:57     .text:00000034 lcdWindow1
/cygdrive/c/Users/embedded/AppData/Local/Temp/ccj5zCCc.s:100    .text:00000088 lcdData
/cygdrive/c/Users/embedded/AppData/Local/Temp/ccj5zCCc.s:190    .text:0000013c $d
/cygdrive/c/Users/embedded/AppData/Local/Temp/ccj5zCCc.s:2134   .bss:00000000 lcd_x
/cygdrive/c/Users/embedded/AppData/Local/Temp/ccj5zCCc.s:2136   .bss:00000001 lcd_y
/cygdrive/c/Users/embedded/AppData/Local/Temp/ccj5zCCc.s:760    .rodata:00000000 charMap
/cygdrive/c/Users/embedded/AppData/Local/Temp/ccj5zCCc.s:201    .text:00000150 lcdPutchar
/cygdrive/c/Users/embedded/AppData/Local/Temp/ccj5zCCc.s:198    .text:00000150 $t
/cygdrive/c/Users/embedded/AppData/Local/Temp/ccj5zCCc.s:251    .text:000001a4 $d
/cygdrive/c/Users/embedded/AppData/Local/Temp/ccj5zCCc.s:2142   .bss:00000004 setcolmark
/cygdrive/c/Users/embedded/AppData/Local/Temp/ccj5zCCc.s:261    .text:000001b4 lcdPuts
/cygdrive/c/Users/embedded/AppData/Local/Temp/ccj5zCCc.s:258    .text:000001b4 $t
/cygdrive/c/Users/embedded/AppData/Local/Temp/ccj5zCCc.s:282    .text:000001cc lcdWindow
/cygdrive/c/Users/embedded/AppData/Local/Temp/ccj5zCCc.s:311    .text:000001fc lcdGotoxy
/cygdrive/c/Users/embedded/AppData/Local/Temp/ccj5zCCc.s:330    .text:0000021c $d
/cygdrive/c/Users/embedded/AppData/Local/Temp/ccj5zCCc.s:338    .text:00000224 lcdIcon
/cygdrive/c/Users/embedded/AppData/Local/Temp/ccj5zCCc.s:335    .text:00000224 $t
/cygdrive/c/Users/embedded/AppData/Local/Temp/ccj5zCCc.s:435    .text:000002d4 lcdRectBrd
/cygdrive/c/Users/embedded/AppData/Local/Temp/ccj5zCCc.s:530    .text:00000384 lcdRect
/cygdrive/c/Users/embedded/AppData/Local/Temp/ccj5zCCc.s:584    .text:000003e8 lcdContrast
/cygdrive/c/Users/embedded/AppData/Local/Temp/ccj5zCCc.s:606    .text:0000040c lcdClrscr
/cygdrive/c/Users/embedded/AppData/Local/Temp/ccj5zCCc.s:640    .text:00000450 $d
/cygdrive/c/Users/embedded/AppData/Local/Temp/ccj5zCCc.s:650    .text:00000460 lcdOff
/cygdrive/c/Users/embedded/AppData/Local/Temp/ccj5zCCc.s:647    .text:00000460 $t
/cygdrive/c/Users/embedded/AppData/Local/Temp/ccj5zCCc.s:668    .text:0000047c lcdInit
/cygdrive/c/Users/embedded/AppData/Local/Temp/ccj5zCCc.s:753    .text:00000568 $d
                             .bss:00000000 $d

UNDEFINED SYMBOLS
sendToLCD
selectLCD
initSpiForLcd
osSleep
